target datalayout = "e-m:e-p270:32:32-p271:32:32-p272:64:64-i64:64-i128:128-f80:128-n8:16:32:64-S128"
target triple = "x86_64-pc-linux-gnu"

%struct.http2_stream_data = type { ptr, ptr, ptr, i32, i32 }

; Function Attrs: nounwind uwtable
define internal void @delete_http2_stream_data(ptr noundef %0) #0 {
  %2 = alloca ptr, align 8
  store ptr %0, ptr %2, align 8, !tbaa !63
  %3 = load ptr, ptr %2, align 8, !tbaa !63
  %4 = getelementptr inbounds nuw %struct.http2_stream_data, ptr %3, i32 0, i32 4
  %5 = load i32, ptr %4, align 4, !tbaa !66
  %6 = icmp ne i32 %5, -1
  br i1 %6, label %7, label %12

7:                                                ; preds = %1
  %8 = load ptr, ptr %2, align 8, !tbaa !63
  %9 = getelementptr inbounds nuw %struct.http2_stream_data, ptr %8, i32 0, i32 4
  %10 = load i32, ptr %9, align 4, !tbaa !66
  %11 = call i32 @close(i32 noundef %10)
  br label %12

12:                                               ; preds = %7, %1
  %13 = load ptr, ptr %2, align 8, !tbaa !63
  %14 = getelementptr inbounds nuw %struct.http2_stream_data, ptr %13, i32 0, i32 2
  %15 = load ptr, ptr %14, align 8, !tbaa !67
  call void @free(ptr noundef %15) #11
  %16 = load ptr, ptr %2, align 8, !tbaa !63
  call void @free(ptr noundef %16) #11
  ret void
}

; Function Attrs: nounwind uwtable
define internal void @remove_stream(ptr noundef %0, ptr noundef %1) #0 {
  %3 = alloca ptr, align 8
  %4 = alloca ptr, align 8
  store ptr %0, ptr %3, align 8, !tbaa !44
  store ptr %1, ptr %4, align 8, !tbaa !63
  %5 = load ptr, ptr %4, align 8, !tbaa !63
  %6 = getelementptr inbounds nuw %struct.http2_stream_data, ptr %5, i32 0, i32 1
  %7 = load ptr, ptr %6, align 8, !tbaa !64
  %8 = load ptr, ptr %4, align 8, !tbaa !63
  %9 = getelementptr inbounds nuw %struct.http2_stream_data, ptr %8, i32 0, i32 0
  %10 = load ptr, ptr %9, align 8, !tbaa !79
  %11 = getelementptr inbounds nuw %struct.http2_stream_data, ptr %10, i32 0, i32 1
  store ptr %7, ptr %11, align 8, !tbaa !64
  %12 = load ptr, ptr %4, align 8, !tbaa !63
  %13 = getelementptr inbounds nuw %struct.http2_stream_data, ptr %12, i32 0, i32 1
  %14 = load ptr, ptr %13, align 8, !tbaa !64
  %15 = icmp ne ptr %14, null
  br i1 %15, label %16, label %24

16:                                               ; preds = %2
  %17 = load ptr, ptr %4, align 8, !tbaa !63
  %18 = getelementptr inbounds nuw %struct.http2_stream_data, ptr %17, i32 0, i32 0
  %19 = load ptr, ptr %18, align 8, !tbaa !79
  %20 = load ptr, ptr %4, align 8, !tbaa !63
  %21 = getelementptr inbounds nuw %struct.http2_stream_data, ptr %20, i32 0, i32 1
  %22 = load ptr, ptr %21, align 8, !tbaa !64
  %23 = getelementptr inbounds nuw %struct.http2_stream_data, ptr %22, i32 0, i32 0
  store ptr %19, ptr %23, align 8, !tbaa !79
  br label %24

24:                                               ; preds = %16, %2
  ret void
}

; Function Attrs: nounwind uwtable
define internal i32 @on_stream_close_callback(ptr noundef %0, i32 noundef %1, i32 noundef %2, ptr noundef %3) #0 {
  %5 = alloca i32, align 4
  %6 = alloca ptr, align 8
  %7 = alloca i32, align 4
  %8 = alloca i32, align 4
  %9 = alloca ptr, align 8
  %10 = alloca ptr, align 8
  %11 = alloca ptr, align 8
  %12 = alloca i32, align 4
  store ptr %0, ptr %6, align 8, !tbaa !70
  store i32 %1, ptr %7, align 4, !tbaa !4
  store i32 %2, ptr %8, align 4, !tbaa !4
  store ptr %3, ptr %9, align 8, !tbaa !42
  call void @llvm.lifetime.start.p0(i64 8, ptr %10) #11
  %13 = load ptr, ptr %9, align 8, !tbaa !42
  store ptr %13, ptr %10, align 8, !tbaa !44
  call void @llvm.lifetime.start.p0(i64 8, ptr %11) #11
  %14 = load ptr, ptr %6, align 8, !tbaa !70
  %15 = load i32, ptr %7, align 4, !tbaa !4
  %16 = call ptr @nghttp2_session_get_stream_user_data(ptr noundef %14, i32 noundef %15)
  store ptr %16, ptr %11, align 8, !tbaa !63
  %17 = load ptr, ptr %11, align 8, !tbaa !63
  %18 = icmp ne ptr %17, null
  br i1 %18, label %20, label %19

19:                                               ; preds = %4
  store i32 0, ptr %5, align 4
  store i32 1, ptr %12, align 4
  br label %24

20:                                               ; preds = %4
  %21 = load ptr, ptr %10, align 8, !tbaa !44
  %22 = load ptr, ptr %11, align 8, !tbaa !63
  call void @remove_stream(ptr noundef %21, ptr noundef %22)
  %23 = load ptr, ptr %11, align 8, !tbaa !63
  call void @delete_http2_stream_data(ptr noundef %23)
  store i32 0, ptr %5, align 4
  store i32 1, ptr %12, align 4
  br label %24

24:                                               ; preds = %20, %19
  call void @llvm.lifetime.end.p0(i64 8, ptr %11) #11
  call void @llvm.lifetime.end.p0(i64 8, ptr %10) #11
  %25 = load i32, ptr %5, align 4
  ret i32 %25
}