; Function Attrs: nounwind uwtable
define internal noundef i32 @on_stream_close_callback(ptr noundef %0, i32 noundef %1, i32 %2, ptr readnone captures(none) %3) #0 {
  %5 = tail call ptr @nghttp2_session_get_stream_user_data(ptr noundef %0, i32 noundef %1) #21
  %.not = icmp eq ptr %5, null
  br i1 %.not, label %18, label %6

6:                                                ; preds = %4
  %7 = getelementptr inbounds nuw i8, ptr %5, i64 8
  %8 = load ptr, ptr %7, align 8, !tbaa !42
  %9 = load ptr, ptr %5, align 8, !tbaa !50
  %10 = getelementptr inbounds nuw i8, ptr %9, i64 8
  store ptr %8, ptr %10, align 8, !tbaa !42
  %.not.i = icmp eq ptr %8, null
  br i1 %.not.i, label %remove_stream.exit, label %11

11:                                               ; preds = %6
  store ptr %9, ptr %8, align 8, !tbaa !50
  br label %remove_stream.exit

remove_stream.exit:                               ; preds = %6, %11
  %12 = getelementptr inbounds nuw i8, ptr %5, i64 28
  %13 = load i32, ptr %12, align 4, !tbaa !43
  %.not.i7 = icmp eq i32 %13, -1
  br i1 %.not.i7, label %delete_http2_stream_data.exit, label %14

14:                                               ; preds = %remove_stream.exit
  %15 = tail call i32 @close(i32 noundef %13) #21
  br label %delete_http2_stream_data.exit

delete_http2_stream_data.exit:                    ; preds = %remove_stream.exit, %14
  %16 = getelementptr inbounds nuw i8, ptr %5, i64 16
  %17 = load ptr, ptr %16, align 8, !tbaa !44
  tail call void @free(ptr noundef %17) #21
  tail call void @free(ptr noundef nonnull %5) #21
  br label %18

18:                                               ; preds = %4, %delete_http2_stream_data.exit
  ret i32 0
}